target datalayout = "e-m:e-p270:32:32-p271:32:32-p272:64:64-i64:64-i128:128-f80:128-n8:16:32:64-S128"
target triple = "x86_64-pc-linux-gnu"

; Function Attrs: inlinehint nounwind uwtable
define internal ptr @ossl_check_const_X509_CRL_sk_type(ptr noundef %0) #7 {
  %2 = alloca ptr, align 8
  store ptr %0, ptr %2, align 8, !tbaa !98
  %3 = load ptr, ptr %2, align 8, !tbaa !98
  ret ptr %3
}

; Function Attrs: nounwind uwtable
define internal i32 @add_crls_store(ptr noundef %0, ptr noundef %1) #0 {
  %3 = alloca ptr, align 8
  %4 = alloca ptr, align 8
  %5 = alloca ptr, align 8
  %6 = alloca i32, align 4
  %7 = alloca i32, align 4
  store ptr %0, ptr %3, align 8, !tbaa !100
  store ptr %1, ptr %4, align 8, !tbaa !98
  call void @llvm.lifetime.start.p0(i64 8, ptr %5) #10
  call void @llvm.lifetime.start.p0(i64 4, ptr %6) #10
  call void @llvm.lifetime.start.p0(i64 4, ptr %7) #10
  store i32 1, ptr %7, align 4, !tbaa !3
  store i32 0, ptr %6, align 4, !tbaa !3
  br label %8

8:                                                ; preds = %25, %2
  %9 = load i32, ptr %6, align 4, !tbaa !3
  %10 = load ptr, ptr %4, align 8, !tbaa !98
  %11 = call ptr @ossl_check_const_X509_CRL_sk_type(ptr noundef %10)
  %12 = call i32 @OPENSSL_sk_num(ptr noundef %11)
  %13 = icmp slt i32 %9, %12
  br i1 %13, label %14, label %28

14:                                               ; preds = %8
  %15 = load ptr, ptr %4, align 8, !tbaa !98
  %16 = call ptr @ossl_check_const_X509_CRL_sk_type(ptr noundef %15)
  %17 = load i32, ptr %6, align 4, !tbaa !3
  %18 = call ptr @OPENSSL_sk_value(ptr noundef %16, i32 noundef %17)
  store ptr %18, ptr %5, align 8, !tbaa !102
  %19 = load ptr, ptr %3, align 8, !tbaa !100
  %20 = load ptr, ptr %5, align 8, !tbaa !102
  %21 = call i32 @X509_STORE_add_crl(ptr noundef %19, ptr noundef %20)
  %22 = icmp ne i32 %21, 0
  br i1 %22, label %24, label %23

23:                                               ; preds = %14
  store i32 0, ptr %7, align 4, !tbaa !3
  br label %24

24:                                               ; preds = %23, %14
  br label %25

25:                                               ; preds = %24
  %26 = load i32, ptr %6, align 4, !tbaa !3
  %27 = add nsw i32 %26, 1
  store i32 %27, ptr %6, align 4, !tbaa !3
  br label %8, !llvm.loop !104

28:                                               ; preds = %8
  %29 = load i32, ptr %7, align 4, !tbaa !3
  call void @llvm.lifetime.end.p0(i64 4, ptr %7) #10
  call void @llvm.lifetime.end.p0(i64 4, ptr %6) #10
  call void @llvm.lifetime.end.p0(i64 8, ptr %5) #10
  ret i32 %29
}

; Function Attrs: nounwind uwtable
define i32 @ssl_load_stores(ptr noundef %0, ptr noundef %1, ptr noundef %2, ptr noundef %3, ptr noundef %4, ptr noundef %5, ptr noundef %6, ptr noundef %7, i32 noundef %8) #0 {
  %10 = alloca ptr, align 8
  %11 = alloca ptr, align 8
  %12 = alloca ptr, align 8
  %13 = alloca ptr, align 8
  %14 = alloca ptr, align 8
  %15 = alloca ptr, align 8
  %16 = alloca ptr, align 8
  %17 = alloca ptr, align 8
  %18 = alloca i32, align 4
  %19 = alloca ptr, align 8
  %20 = alloca ptr, align 8
  %21 = alloca i32, align 4
  store ptr %0, ptr %10, align 8, !tbaa !19
  store ptr %1, ptr %11, align 8, !tbaa !21
  store ptr %2, ptr %12, align 8, !tbaa !21
  store ptr %3, ptr %13, align 8, !tbaa !21
  store ptr %4, ptr %14, align 8, !tbaa !21
  store ptr %5, ptr %15, align 8, !tbaa !21
  store ptr %6, ptr %16, align 8, !tbaa !21
  store ptr %7, ptr %17, align 8, !tbaa !98
  store i32 %8, ptr %18, align 4, !tbaa !3
  call void @llvm.lifetime.start.p0(i64 8, ptr %19) #10
  store ptr null, ptr %19, align 8, !tbaa !100
  call void @llvm.lifetime.start.p0(i64 8, ptr %20) #10
  store ptr null, ptr %20, align 8, !tbaa !100
  call void @llvm.lifetime.start.p0(i64 4, ptr %21) #10
  store i32 0, ptr %21, align 4, !tbaa !3
  %22 = load ptr, ptr %11, align 8, !tbaa !21
  %23 = icmp ne ptr %22, null
  br i1 %23, label %30, label %24

24:                                               ; preds = %9
  %25 = load ptr, ptr %12, align 8, !tbaa !21
  %26 = icmp ne ptr %25, null
  br i1 %26, label %30, label %27

27:                                               ; preds = %24
  %28 = load ptr, ptr %13, align 8, !tbaa !21
  %29 = icmp ne ptr %28, null
  br i1 %29, label %30, label %77

30:                                               ; preds = %27, %24, %9
  %31 = call ptr @X509_STORE_new()
  store ptr %31, ptr %19, align 8, !tbaa !100
  %32 = load ptr, ptr %19, align 8, !tbaa !100
  %33 = icmp eq ptr %32, null
  br i1 %33, label %34, label %35

34:                                               ; preds = %30
  br label %126

35:                                               ; preds = %30
  %36 = load ptr, ptr %12, align 8, !tbaa !21
  %37 = icmp ne ptr %36, null
  br i1 %37, label %38, label %44

38:                                               ; preds = %35
  %39 = load ptr, ptr %19, align 8, !tbaa !100
  %40 = load ptr, ptr %12, align 8, !tbaa !21
  %41 = call i32 @X509_STORE_load_file(ptr noundef %39, ptr noundef %40)
  %42 = icmp ne i32 %41, 0
  br i1 %42, label %44, label %43

43:                                               ; preds = %38
  br label %126

44:                                               ; preds = %38, %35
  %45 = load ptr, ptr %11, align 8, !tbaa !21
  %46 = icmp ne ptr %45, null
  br i1 %46, label %47, label %53

47:                                               ; preds = %44
  %48 = load ptr, ptr %19, align 8, !tbaa !100
  %49 = load ptr, ptr %11, align 8, !tbaa !21
  %50 = call i32 @X509_STORE_load_path(ptr noundef %48, ptr noundef %49)
  %51 = icmp ne i32 %50, 0
  br i1 %51, label %53, label %52

52:                                               ; preds = %47
  br label %126

53:                                               ; preds = %47, %44
  %54 = load ptr, ptr %13, align 8, !tbaa !21
  %55 = icmp ne ptr %54, null
  br i1 %55, label %56, label %62

56:                                               ; preds = %53
  %57 = load ptr, ptr %19, align 8, !tbaa !100
  %58 = load ptr, ptr %13, align 8, !tbaa !21
  %59 = call i32 @X509_STORE_load_store(ptr noundef %57, ptr noundef %58)
  %60 = icmp ne i32 %59, 0
  br i1 %60, label %62, label %61

61:                                               ; preds = %56
  br label %126

62:                                               ; preds = %56, %53
  %63 = load ptr, ptr %19, align 8, !tbaa !100
  %64 = load ptr, ptr %17, align 8, !tbaa !98
  %65 = call i32 @add_crls_store(ptr noundef %63, ptr noundef %64)
  %66 = load ptr, ptr %10, align 8, !tbaa !19
  %67 = load ptr, ptr %19, align 8, !tbaa !100
  %68 = call i64 @SSL_CTX_ctrl(ptr noundef %66, i32 noundef 106, i64 noundef 1, ptr noundef %67)
  %69 = icmp eq i64 %68, 0
  br i1 %69, label %70, label %71

70:                                               ; preds = %62
  br label %126

71:                                               ; preds = %62
  %72 = load i32, ptr %18, align 4, !tbaa !3
  %73 = icmp ne i32 %72, 0
  br i1 %73, label %74, label %76

74:                                               ; preds = %71
  %75 = load ptr, ptr %19, align 8, !tbaa !100
  call void @store_setup_crl_download(ptr noundef %75)
  br label %76

76:                                               ; preds = %74, %71
  br label %77

77:                                               ; preds = %76, %27
  %78 = load ptr, ptr %14, align 8, !tbaa !21
  %79 = icmp ne ptr %78, null
  br i1 %79, label %86, label %80

80:                                               ; preds = %77
  %81 = load ptr, ptr %15, align 8, !tbaa !21
  %82 = icmp ne ptr %81, null
  br i1 %82, label %86, label %83

83:                                               ; preds = %80
  %84 = load ptr, ptr %16, align 8, !tbaa !21
  %85 = icmp ne ptr %84, null
  br i1 %85, label %86, label %125

86:                                               ; preds = %83, %80, %77
  %87 = call ptr @X509_STORE_new()
  store ptr %87, ptr %20, align 8, !tbaa !100
  %88 = load ptr, ptr %20, align 8, !tbaa !100
  %89 = icmp eq ptr %88, null
  br i1 %89, label %90, label %91

90:                                               ; preds = %86
  br label %126

91:                                               ; preds = %86
  %92 = load ptr, ptr %15, align 8, !tbaa !21
  %93 = icmp ne ptr %92, null
  br i1 %93, label %94, label %100

94:                                               ; preds = %91
  %95 = load ptr, ptr %20, align 8, !tbaa !100
  %96 = load ptr, ptr %15, align 8, !tbaa !21
  %97 = call i32 @X509_STORE_load_file(ptr noundef %95, ptr noundef %96)
  %98 = icmp ne i32 %97, 0
  br i1 %98, label %100, label %99

99:                                               ; preds = %94
  br label %126

100:                                              ; preds = %94, %91
  %101 = load ptr, ptr %14, align 8, !tbaa !21
  %102 = icmp ne ptr %101, null
  br i1 %102, label %103, label %109

103:                                              ; preds = %100
  %104 = load ptr, ptr %20, align 8, !tbaa !100
  %105 = load ptr, ptr %14, align 8, !tbaa !21
  %106 = call i32 @X509_STORE_load_path(ptr noundef %104, ptr noundef %105)
  %107 = icmp ne i32 %106, 0
  br i1 %107, label %109, label %108

108:                                              ; preds = %103
  br label %126

109:                                              ; preds = %103, %100
  %110 = load ptr, ptr %16, align 8, !tbaa !21
  %111 = icmp ne ptr %110, null
  br i1 %111, label %112, label %118

112:                                              ; preds = %109
  %113 = load ptr, ptr %20, align 8, !tbaa !100
  %114 = load ptr, ptr %16, align 8, !tbaa !21
  %115 = call i32 @X509_STORE_load_store(ptr noundef %113, ptr noundef %114)
  %116 = icmp ne i32 %115, 0
  br i1 %116, label %118, label %117

117:                                              ; preds = %112
  br label %126

118:                                              ; preds = %112, %109
  %119 = load ptr, ptr %10, align 8, !tbaa !19
  %120 = load ptr, ptr %20, align 8, !tbaa !100
  %121 = call i64 @SSL_CTX_ctrl(ptr noundef %119, i32 noundef 107, i64 noundef 1, ptr noundef %120)
  %122 = icmp eq i64 %121, 0
  br i1 %122, label %123, label %124

123:                                              ; preds = %118
  br label %126

124:                                              ; preds = %118
  br label %125

125:                                              ; preds = %124, %83
  store i32 1, ptr %21, align 4, !tbaa !3
  br label %126

126:                                              ; preds = %125, %123, %117, %108, %99, %90, %70, %61, %52, %43, %34
  %127 = load ptr, ptr %19, align 8, !tbaa !100
  call void @X509_STORE_free(ptr noundef %127)
  %128 = load ptr, ptr %20, align 8, !tbaa !100
  call void @X509_STORE_free(ptr noundef %128)
  %129 = load i32, ptr %21, align 4, !tbaa !3
  call void @llvm.lifetime.end.p0(i64 4, ptr %21) #10
  call void @llvm.lifetime.end.p0(i64 8, ptr %20) #10
  call void @llvm.lifetime.end.p0(i64 8, ptr %19) #10
  ret i32 %129
}