; Function Attrs: nounwind uwtable
define range(i32 0, 2) i32 @ssl_load_stores(ptr noundef %0, ptr noundef %1, ptr noundef %2, ptr noundef %3, ptr noundef %4, ptr noundef %5, ptr noundef %6, ptr noundef %7, i32 noundef %8) local_unnamed_addr #0 {
  %10 = icmp ne ptr %1, null
  %11 = icmp ne ptr %2, null
  %or.cond = or i1 %10, %11
  %12 = icmp ne ptr %3, null
  %or.cond3 = or i1 %or.cond, %12
  br i1 %or.cond3, label %13, label %37

13:                                               ; preds = %9
  %14 = tail call ptr @X509_STORE_new() #6
  %15 = icmp eq ptr %14, null
  br i1 %15, label %56, label %16

16:                                               ; preds = %13
  br i1 %11, label %17, label %19

17:                                               ; preds = %16
  %18 = tail call i32 @X509_STORE_load_file(ptr noundef nonnull %14, ptr noundef nonnull %2) #6
  %.not = icmp eq i32 %18, 0
  br i1 %.not, label %56, label %19

19:                                               ; preds = %17, %16
  br i1 %10, label %20, label %22

20:                                               ; preds = %19
  %21 = tail call i32 @X509_STORE_load_path(ptr noundef nonnull %14, ptr noundef nonnull %1) #6
  %.not56 = icmp eq i32 %21, 0
  br i1 %.not56, label %56, label %22

22:                                               ; preds = %20, %19
  br i1 %12, label %23, label %25

23:                                               ; preds = %22
  %24 = tail call i32 @X509_STORE_load_store(ptr noundef nonnull %14, ptr noundef nonnull %3) #6
  %.not57 = icmp eq i32 %24, 0
  br i1 %.not57, label %56, label %25

25:                                               ; preds = %23, %22
  %26 = tail call i32 @OPENSSL_sk_num(ptr noundef %7) #6
  %27 = icmp sgt i32 %26, 0
  br i1 %27, label %.lr.ph.i, label %add_crls_store.exit

.lr.ph.i:                                         ; preds = %25, %.lr.ph.i
  %.078.i = phi i32 [ %30, %.lr.ph.i ], [ 0, %25 ]
  %28 = tail call ptr @OPENSSL_sk_value(ptr noundef %7, i32 noundef %.078.i) #6
  %29 = tail call i32 @X509_STORE_add_crl(ptr noundef nonnull %14, ptr noundef %28) #6
  %30 = add nuw nsw i32 %.078.i, 1
  %31 = tail call i32 @OPENSSL_sk_num(ptr noundef %7) #6
  %32 = icmp slt i32 %30, %31
  br i1 %32, label %.lr.ph.i, label %add_crls_store.exit, !llvm.loop !70

add_crls_store.exit:                              ; preds = %.lr.ph.i, %25
  %33 = tail call i64 @SSL_CTX_ctrl(ptr noundef %0, i32 noundef 106, i64 noundef 1, ptr noundef nonnull %14) #6
  %34 = icmp eq i64 %33, 0
  br i1 %34, label %56, label %35

35:                                               ; preds = %add_crls_store.exit
  %.not58 = icmp eq i32 %8, 0
  br i1 %.not58, label %37, label %36

36:                                               ; preds = %35
  tail call void @store_setup_crl_download(ptr noundef nonnull %14) #6
  br label %37

37:                                               ; preds = %35, %36, %9
  %.044 = phi ptr [ %14, %36 ], [ %14, %35 ], [ null, %9 ]
  %38 = icmp ne ptr %4, null
  %39 = icmp ne ptr %5, null
  %or.cond5 = or i1 %38, %39
  %40 = icmp ne ptr %6, null
  %or.cond7 = or i1 %or.cond5, %40
  br i1 %or.cond7, label %41, label %56

41:                                               ; preds = %37
  %42 = tail call ptr @X509_STORE_new() #6
  %43 = icmp eq ptr %42, null
  br i1 %43, label %56, label %44

44:                                               ; preds = %41
  br i1 %39, label %45, label %47

45:                                               ; preds = %44
  %46 = tail call i32 @X509_STORE_load_file(ptr noundef nonnull %42, ptr noundef nonnull %5) #6
  %.not59 = icmp eq i32 %46, 0
  br i1 %.not59, label %56, label %47

47:                                               ; preds = %45, %44
  br i1 %38, label %48, label %50

48:                                               ; preds = %47
  %49 = tail call i32 @X509_STORE_load_path(ptr noundef nonnull %42, ptr noundef nonnull %4) #6
  %.not60 = icmp eq i32 %49, 0
  br i1 %.not60, label %56, label %50

50:                                               ; preds = %48, %47
  br i1 %40, label %51, label %53

51:                                               ; preds = %50
  %52 = tail call i32 @X509_STORE_load_store(ptr noundef nonnull %42, ptr noundef nonnull %6) #6
  %.not61 = icmp eq i32 %52, 0
  br i1 %.not61, label %56, label %53

53:                                               ; preds = %51, %50
  %54 = tail call i64 @SSL_CTX_ctrl(ptr noundef %0, i32 noundef 107, i64 noundef 1, ptr noundef nonnull %42) #6
  %55 = icmp ne i64 %54, 0
  %spec.select = zext i1 %55 to i32
  br label %56

56:                                               ; preds = %53, %37, %51, %48, %45, %41, %add_crls_store.exit, %23, %20, %17, %13
  %.145 = phi ptr [ null, %13 ], [ %14, %add_crls_store.exit ], [ %.044, %41 ], [ %.044, %51 ], [ %.044, %48 ], [ %.044, %45 ], [ %14, %23 ], [ %14, %20 ], [ %14, %17 ], [ %.044, %37 ], [ %.044, %53 ]
  %.043 = phi ptr [ null, %13 ], [ null, %add_crls_store.exit ], [ null, %41 ], [ %42, %51 ], [ %42, %48 ], [ %42, %45 ], [ null, %23 ], [ null, %20 ], [ null, %17 ], [ null, %37 ], [ %42, %53 ]
  %.0 = phi i32 [ 0, %13 ], [ 0, %add_crls_store.exit ], [ 0, %41 ], [ 0, %51 ], [ 0, %48 ], [ 0, %45 ], [ 0, %23 ], [ 0, %20 ], [ 0, %17 ], [ 1, %37 ], [ %spec.select, %53 ]
  tail call void @X509_STORE_free(ptr noundef %.145) #6
  tail call void @X509_STORE_free(ptr noundef %.043) #6
  ret i32 %.0
}